			
test.bin:     file format binary			
			
			
Disassembly of section .data:			
			
0000000000000000 <.data>:			
       0:	93	li	ra,0
       4:	113	li	sp,0
       8:	193	li	gp,0
       c:	bfa22137          	lui	sp,0xbfa22
      10:	a46d4093          	xori	ra,s10,-1466
      14:	a5c433b7          	lui	t2,0xa5c43
      18:	567a5137          	lui	sp,0x567a5
      1c:	400020b7          	lui	ra,0x40002
      20:	001080b3          	add	ra,ra,ra
      24:	e840b823          	sd	tp,-368(ra) # 0x40001e90
      28:	a700e337          	lui	t1,0xa700e
      2c:	9.64E+96	ori	ra,a1,-1693
      30:	b1b07093          	andi	ra,zero,-1253
      34:	400021b7          	lui	gp,0x40002
      38:	003181b3          	add	gp,gp,gp
      3c:	e901b103          	ld	sp,-368(gp) # 0x40001e90
      40:	c3c45137          	lui	sp,0xc3c45
      44:	40002237	lui	tp,0x40002
      48:	420233	add	tp,tp,tp
      4c:	e8123423          	sd	ra,-376(tp) # 0x40001e88
      50:	1443c0b7          	lui	ra,0x1443c
      54:	dccf51b7          	lui	gp,0xdccf5
      58:	aadba037          	lui	zero,0xaadba
      5c:	40c08093          	addi	ra,ra,1036 # 0x1443c40c
      60:	ef61d237          	lui	tp,0xef61d
      64:	9a016293          	ori	t0,sp,-1632
      68:	3cc920b7          	lui	ra,0x3cc92
      6c:	5ef941b7          	lui	gp,0x5ef94
      70:	24fc3137          	lui	sp,0x24fc3
      74:	0fc1ee93          	ori	t4,gp,252
      78:	d0a16393          	ori	t2,sp,-758
      7c:	83d0c113          	xori	sp,ra,-1987
      80:	9d408193          	addi	gp,ra,-1580 # 0x3cc919d4
      84:	2c30c113          	xori	sp,ra,707
      88:	310263	beq	sp,gp,0x8c
      8c:	1b10026f          	jal	tp,0xa3c
      90:	0fda22b7          	lui	t0,0xfda2
      94:	8a328793          	addi	a5,t0,-1885 # 0xfda18a3
      98:	92a16a13          	ori	s4,sp,-1750
      9c:	3d39e4b7          	lui	s1,0x3d39e
      a0:	30614293	xori	t0,sp,774
      a4:	0d118113          	addi	sp,gp,209 # 0x5ef940d1
      a8:	55ddb137          	lui	sp,0x55ddb
      ac:	40002337	lui	t1,0x40002
      b0:	630333	add	t1,t1,t1
      b4:	e9033103          	ld	sp,-368(t1) # 0x40001e90
      b8:	9c61f093          	andi	ra,gp,-1594
      bc:	206681b7          	lui	gp,0x20668
      c0:	59e17193          	andi	gp,sp,1438
      c4:	2dd88313          	addi	t1,a7,733
      c8:	400020b7          	lui	ra,0x40002
      cc:	001080b3          	add	ra,ra,ra
      d0:	e810b823          	sd	ra,-368(ra) # 0x40001e90
      d4:	1cd80093          	addi	ra,a6,461
      d8:	2d0e81b7          	lui	gp,0x2d0e8
      dc:	4.54E+96	ori	ra,gp,1108
      e0:	3aea5937          	lui	s2,0x3aea5
      e4:	68617013	andi	zero,sp,1670
      e8:	98a79137          	lui	sp,0x98a79
      ec:	08a260b7          	lui	ra,0x8a26
      f0:	8a81f393          	andi	t2,gp,-1880
      f4:	d932e113          	ori	sp,t0,-621
      f8:	6ce1d237          	lui	tp,0x6ce1d
      fc:	fe16c193          	xori	gp,a3,-31
     100:	f3410113          	addi	sp,sp,-204 # 0xffffffff98a78f34
     104:	fcc960b7          	lui	ra,0xfcc96
     108:	ad208193          	addi	gp,ra,-1326 # 0xfffffffffcc95ad2
     10c:	510263	beq	sp,t0,0x110
     110:	1b9000ef          	jal	ra,0xac8
     114:	400021b7          	lui	gp,0x40002
     118:	003181b3          	add	gp,gp,gp
     11c:	e811b423          	sd	ra,-376(gp) # 0x40001e88
     120:	65c9e0b7          	lui	ra,0x65c9e
     124:	40002137	lui	sp,0x40002
     128:	210133	add	sp,sp,sp
     12c:	e8813003          	ld	zero,-376(sp) # 0x40001e88
     130:	15214db7          	lui	s11,0x15214
     134:	29c921b7          	lui	gp,0x29c92
     138:	400020b7          	lui	ra,0x40002
     13c:	001080b3          	add	ra,ra,ra
     140:	e820b423          	sd	sp,-376(ra) # 0x40001e88
     144:	52917093	andi	ra,sp,1321
     148:	138b4237          	lui	tp,0x138b4
     14c:	73634193	xori	gp,t1,1846
     150:	1.35E+196	ori	gp,t0,309
     154:	f4937013          	andi	zero,t1,-183
     158:	d3a10293          	addi	t0,sp,-710
     15c:	d2917313          	andi	t1,sp,-727
     160:	08fea137          	lui	sp,0x8fea
     164:	4bcb62b7          	lui	t0,0x4bcb6
     168:	925c53b7          	lui	t2,0x925c5
     16c:	64b0e193          	ori	gp,ra,1611
     170:	6c8f4313          	xori	t1,t5,1736
     174:	b891c093          	xori	ra,gp,-1143
     178:	400021b7          	lui	gp,0x40002
     17c:	003181b3          	add	gp,gp,gp
     180:	e881b083          	ld	ra,-376(gp) # 0x40001e88
     184:	2f02e793          	ori	a5,t0,752
     188:	8f19c0b7          	lui	ra,0x8f19c
     18c:	22138263	beq	t2,ra,0x3b0
     190:	220000ef          	jal	ra,0x3b0
     194:	ddf3c193          	xori	gp,t2,-545
     198:	f271e093          	ori	ra,gp,-217
     19c:	fee90137          	lui	sp,0xfee90
     1a0:	0671c0b7          	lui	ra,0x671c
     1a4:	759fd2b7          	lui	t0,0x759fd
     1a8:	400023b7          	lui	t2,0x40002
     1ac:	007383b3          	add	t2,t2,t2
     1b0:	e833b423          	sd	gp,-376(t2) # 0x40001e88
     1b4:	a9b80137          	lui	sp,0xa9b80
     1b8:	4cda6337          	lui	t1,0x4cda6
     1bc:	a0c17213          	andi	tp,sp,-1524
     1c0:	8ff0c113          	xori	sp,ra,-1793
     1c4:	43ee4137          	lui	sp,0x43ee4
     1c8:	40c1f193          	andi	gp,gp,1036
     1cc:	c9ddc093          	xori	ra,s11,-867
     1d0:	06e0f113          	andi	sp,ra,110
     1d4:	9f0af2b7          	lui	t0,0x9f0af
     1d8:	40002137	lui	sp,0x40002
     1dc:	210133	add	sp,sp,sp
     1e0:	e9013083          	ld	ra,-368(sp) # 0x40001e90
     1e4:	94728613	addi	a2,t0,-1721 # 0xffffffff9f0ae947
     1e8:	5.46E+39	lui	zero,0x546e
     1ec:	beac7137          	lui	sp,0xbeac7
     1f0:	e882e1b7          	lui	gp,0xe882e
     1f4:	b280e213          	ori	tp,ra,-1240
     1f8:	9.18E+196	ori	gp,s1,-1768
     1fc:	61b7a1b7          	lui	gp,0x61b7a
     200:	9524f337          	lui	t1,0x9524f
     204:	64504113	xori	sp,zero,1605
     208:	400020b7          	lui	ra,0x40002
     20c:	001080b3          	add	ra,ra,ra
     210:	e820b823          	sd	sp,-368(ra) # 0x40001e90
     214:	10193	mv	gp,sp
     218:	ee218ee3          	beq	gp,sp,0x114
     21c:	37210093	addi	ra,sp,882 # 0xffffffffbeac7372
     220:	a4693137          	lui	sp,0xa4693
     224:	8aa2dfb7          	lui	t6,0x8aa2d
     228:	400021b7          	lui	gp,0x40002
     22c:	003181b3          	add	gp,gp,gp
     230:	e851b823          	sd	t0,-368(gp) # 0x40001e90
     234:	98b18093          	addi	ra,gp,-1653
     238:	73217113	andi	sp,sp,1842
     23c:	40002137	lui	sp,0x40002
     240:	210133	add	sp,sp,sp
     244:	e8313823          	sd	gp,-368(sp) # 0x40001e90
     248:	bd1de093          	ori	ra,s11,-1071
     24c:	01a6f193          	andi	gp,a3,26
     250:	400020b7          	lui	ra,0x40002
     254:	001080b3          	add	ra,ra,ra
     258:	e900b483          	ld	s1,-368(ra) # 0x40001e90
     25c:	d0eae3b7          	lui	t2,0xd0eae
     260:	36b5c137          	lui	sp,0x36b5c
     264:	400021b7          	lui	gp,0x40002
     268:	003181b3          	add	gp,gp,gp
     26c:	e881b103          	ld	sp,-376(gp) # 0x40001e88
     270:	3c980137          	lui	sp,0x3c980
     274:	13718193	addi	gp,gp,311
     278:	a830e213          	ori	tp,ra,-1405
     27c:	77c380b7          	lui	ra,0x77c38
     280:	1e3e5237          	lui	tp,0x1e3e5
     284:	e0118193          	addi	gp,gp,-511
     288:	400020b7          	lui	ra,0x40002
     28c:	001080b3          	add	ra,ra,ra
     290:	e810b423          	sd	ra,-376(ra) # 0x40001e88
     294:	0327e0b7          	lui	ra,0x327e
     298:	70220a63          	beq	tp,sp,0x9ac
     29c:	710001ef          	jal	gp,0x9ac
     2a0:	32de61b7          	lui	gp,0x32de6
     2a4:	a6132137          	lui	sp,0xa6132
     2a8:	f3117013          	andi	zero,sp,-207
     2ac:	400021b7          	lui	gp,0x40002
     2b0:	003181b3          	add	gp,gp,gp
     2b4:	e8b1b423          	sd	a1,-376(gp) # 0x40001e88
     2b8:	dc7971b7          	lui	gp,0xdc797
     2bc:	400021b7          	lui	gp,0x40002
     2c0:	003181b3          	add	gp,gp,gp
     2c4:	e901b183          	ld	gp,-368(gp) # 0x40001e90
     2c8:	cb7b5037          	lui	zero,0xcb7b5
     2cc:	cdd1f193          	andi	gp,gp,-803
     2d0:	c0339137          	lui	sp,0xc0339
     2d4:	781a5137          	lui	sp,0x781a5
     2d8:	74cd7137          	lui	sp,0x74cd7
     2dc:	ef410193          	addi	gp,sp,-268 # 0x74cd6ef4
     2e0:	f9b060b7          	lui	ra,0xf9b06
     2e4:	3318113	addi	sp,gp,51
     2e8:	bdb061b7          	lui	gp,0xbdb06
     2ec:	ad2bb1b7          	lui	gp,0xad2bb
     2f0:	5b91ed93          	ori	s11,gp,1465
     2f4:	3ff1c113          	xori	sp,gp,1023
     2f8:	4ed14093          	xori	ra,sp,1261
     2fc:	8810f093          	andi	ra,ra,-1919
     300:	40002137	lui	sp,0x40002
     304:	210133	add	sp,sp,sp
     308:	e9013103          	ld	sp,-368(sp) # 0x40001e90
     30c:	86514293	xori	t0,sp,-1947
     310:	3.62E+196	ori	gp,gp,866
     314:	6c10c093          	xori	ra,ra,1729
     318:	1d6691b7          	lui	gp,0x1d669
     31c:	6.11E+215	ori	tp,gp,97
     320:	5eb63137          	lui	sp,0x5eb63
     324:	4c508c63          	beq	ra,t0,0x7fc
     328:	4d4007ef          	jal	a5,0x7fc
     32c:	aa037193          	andi	gp,t1,-1376
     330:	b2a2f193          	andi	gp,t0,-1238
     334:	ce334137          	lui	sp,0xce334
     338:	3c90f137          	lui	sp,0x3c90f
     33c:	cac86137          	lui	sp,0xcac86
     340:	9fda9137          	lui	sp,0x9fda9
     344:	400020b7          	lui	ra,0x40002
     348:	001080b3          	add	ra,ra,ra
     34c:	e810b823          	sd	ra,-368(ra) # 0x40001e90
     350:	d9f1c093          	xori	ra,gp,-609
     354:	400023b7          	lui	t2,0x40002
     358:	007383b3          	add	t2,t2,t2
     35c:	e883b283          	ld	t0,-376(t2) # 0x40001e88
     360:	269252b7          	lui	t0,0x26925
     364:	2f9d81b7          	lui	gp,0x2f9d8
     368:	4db0e193          	ori	gp,ra,1243
     36c:	1083f113          	andi	sp,t2,264
     370:	40002137	lui	sp,0x40002
     374:	210133	add	sp,sp,sp
     378:	e9013183          	ld	gp,-368(sp) # 0x40001e90
     37c:	400021b7          	lui	gp,0x40002
     380:	003181b3          	add	gp,gp,gp
     384:	e821b823          	sd	sp,-368(gp) # 0x40001e90
     388:	6bb2e193          	ori	gp,t0,1723
     38c:	40002137	lui	sp,0x40002
     390:	210133	add	sp,sp,sp
     394:	e8513423          	sd	t0,-376(sp) # 0x40001e88
     398:	3b3900b7          	lui	ra,0x3b390
     39c:	09c38113          	addi	sp,t2,156
     3a0:	ef62e213          	ori	tp,t0,-266
     3a4:	cb208393          	addi	t2,ra,-846 # 0x3b38fcb2
     3a8:	34110863	beq	sp,ra,0x6f8
     3ac:	34c000ef          	jal	ra,0x6f8
     3b0:	dc414493          	xori	s1,sp,-572
     3b4:	40002237	lui	tp,0x40002
     3b8:	420233	add	tp,tp,tp
     3bc:	e8523823          	sd	t0,-368(tp) # 0x40001e90
     3c0:	912e3137          	lui	sp,0x912e3
     3c4:	ea8870b7          	lui	ra,0xea887
     3c8:	8cf17393          	andi	t2,sp,-1841
     3cc:	9c9671b7          	lui	gp,0x9c967
     3d0:	400020b7          	lui	ra,0x40002
     3d4:	001080b3          	add	ra,ra,ra
     3d8:	e900b183          	ld	gp,-368(ra) # 0x40001e90
     3dc:	1350e313          	ori	t1,ra,309
     3e0:	40002137	lui	sp,0x40002
     3e4:	210133	add	sp,sp,sp
     3e8:	e8813183          	ld	gp,-376(sp) # 0x40001e88
     3ec:	400020b7          	lui	ra,0x40002
     3f0:	001080b3          	add	ra,ra,ra
     3f4:	e900b083          	ld	ra,-368(ra) # 0x40001e90
     3f8:	8d629137          	lui	sp,0x8d629
     3fc:	d2a24013          	xori	zero,tp,-726
     400:	9d3bc3b7          	lui	t2,0x9d3bc
     404:	38eaa137          	lui	sp,0x38eaa
     408:	2540f013          	andi	zero,ra,596
     40c:	d4a18093          	addi	ra,gp,-694 # 0xffffffff9c966d4a
     410:	40002137	lui	sp,0x40002
     414:	210133	add	sp,sp,sp
     418:	e9013103          	ld	sp,-368(sp) # 0x40001e90
     41c:	23dd5137          	lui	sp,0x23dd5
     420:	cfa840b7          	lui	ra,0xcfa84
     424:	fdd14193          	xori	gp,sp,-35
     428:	3bb0e113          	ori	sp,ra,955
     42c:	37934093	xori	ra,t1,889
     430:	2081c093          	xori	ra,gp,520
     434:	cdb3f193          	andi	gp,t2,-805
     438:	08310a63          	beq	sp,gp,0x4cc
     43c:	090000ef          	jal	ra,0x4cc
     440:	f27141b7          	lui	gp,0xf2714
     444:	40002137	lui	sp,0x40002
     448:	210133	add	sp,sp,sp
     44c:	e8113423          	sd	ra,-376(sp) # 0x40001e88
     450:	0610c193          	xori	gp,ra,97
     454:	971b42b7          	lui	t0,0x971b4
     458:	5cf10f13          	addi	t5,sp,1487
     45c:	2bf0e013          	ori	zero,ra,703
     460:	a356f0b7          	lui	ra,0xa356f
     464:	60917293	andi	t0,sp,1545
     468:	40002137	lui	sp,0x40002
     46c:	210133	add	sp,sp,sp
     470:	e8813303          	ld	t1,-376(sp) # 0x40001e88
     474:	7ca733b7          	lui	t2,0x7ca73
     478:	71814213	xori	tp,sp,1816
     47c:	91e711b7          	lui	gp,0x91e71
     480:	53d1e113          	ori	sp,gp,1341
     484:	400021b7          	lui	gp,0x40002
     488:	003181b3          	add	gp,gp,gp
     48c:	e881b083          	ld	ra,-376(gp) # 0x40001e88
     490:	400021b7          	lui	gp,0x40002
     494:	003181b3          	add	gp,gp,gp
     498:	e821b423          	sd	sp,-376(gp) # 0x40001e88
     49c:	db314193          	xori	gp,sp,-589
     4a0:	59716093	ori	ra,sp,1431
     4a4:	f7006293          	ori	t0,zero,-144
     4a8:	24c5f137          	lui	sp,0x24c5f
     4ac:	5ce440b7          	lui	ra,0x5ce44
     4b0:	0c4342b7          	lui	t0,0xc434
     4b4:	3817093	andi	ra,sp,56
     4b8:	88f5f1b7          	lui	gp,0x88f5f
     4bc:	acc973b7          	lui	t2,0xacc97
     4c0:	c5014113          	xori	sp,sp,-944
     4c4:	618263	beq	gp,t1,0x4c8
     4c8:	1dd000ef          	jal	ra,0xea4
     4cc:	4aa36113          	ori	sp,t1,1194
     4d0:	6c6e5037          	lui	zero,0x6c6e5
     4d4:	b750e0b7          	lui	ra,0xb750e
     4d8:	dbbd6137          	lui	sp,0xdbbd6
     4dc:	b3cf6137          	lui	sp,0xb3cf6
     4e0:	d981c393          	xori	t2,gp,-616
     4e4:	3f10e093          	ori	ra,ra,1009
     4e8:	c6adb1b7          	lui	gp,0xc6adb
     4ec:	400020b7          	lui	ra,0x40002
     4f0:	001080b3          	add	ra,ra,ra
     4f4:	e900b103          	ld	sp,-368(ra) # 0x40001e90
     4f8:	6d5fa1b7          	lui	gp,0x6d5fa
     4fc:	2b0746b7          	lui	a3,0x2b074
     500:	40002137	lui	sp,0x40002
     504:	210133	add	sp,sp,sp
     508:	e9013083          	ld	ra,-368(sp) # 0x40001e90
     50c:	e9d14093          	xori	ra,sp,-355
     510:	400020b7          	lui	ra,0x40002
     514:	001080b3          	add	ra,ra,ra
     518:	e900b083          	ld	ra,-368(ra) # 0x40001e90
     51c:	400020b7          	lui	ra,0x40002
     520:	001080b3          	add	ra,ra,ra
     524:	e880b183          	ld	gp,-376(ra) # 0x40001e88
     528:	0e306193          	ori	gp,zero,227
     52c:	7f1fb137          	lui	sp,0x7f1fb
     530:	81d14137          	lui	sp,0x81d14
     534:	24917193	andi	gp,sp,585
     538:	97f16213          	ori	tp,sp,-1665
     53c:	51c680b7          	lui	ra,0x51c68
     540:	7ca16093          	ori	ra,sp,1994
     544:	4e707137          	lui	sp,0x4e707
     548:	1926193	ori	gp,tp,25
     54c:	18313	mv	t1,gp
     550:	b43300e3          	beq	t1,gp,0x90
     554:	22d56137          	lui	sp,0x22d56
     558:	c864c0b7          	lui	ra,0xc864c
     55c:	20027613	andi	a2,tp,512
     560:	fff38213          	addi	tp,t2,-1 # 0xffffffffacc96fff
     564:	dc954137          	lui	sp,0xdc954
     568:	ca366037          	lui	zero,0xca366
     56c:	d43e40b7          	lui	ra,0xd43e4
     570:	a8718293          	addi	t0,gp,-1401 # 0x6d5f9a87
     574:	23d0f193          	andi	gp,ra,573
     578:	44714093	xori	ra,sp,1095
     57c:	7da10093          	addi	ra,sp,2010 # 0xffffffffdc9547da
     580:	f7b36093          	ori	ra,t1,-133
     584:	3f514713          	xori	a4,sp,1013
     588:	7c5a80b7          	lui	ra,0x7c5a8
     58c:	80f14113          	xori	sp,sp,-2033
     590:	67c383b7          	lui	t2,0x67c38
     594:	29c18093          	addi	ra,gp,668
     598:	30b10113          	addi	sp,sp,779
     59c:	ce42c137          	lui	sp,0xce42c
     5a0:	21810113	addi	sp,sp,536 # 0xffffffffce42c218
     5a4:	6a738093          	addi	ra,t2,1703 # 0x67c386a7
     5a8:	a3b0ec93          	ori	s9,ra,-1477
     5ac:	2d702237          	lui	tp,0x2d702
     5b0:	21e0c193          	xori	gp,ra,542
     5b4:	7b0a4113          	xori	sp,s4,1968
     5b8:	447ce137          	lui	sp,0x447ce
     5bc:	de9880b7          	lui	ra,0xde988
     5c0:	e0a14193          	xori	gp,sp,-502
     5c4:	3a51c093          	xori	ra,gp,933
     5c8:	400021b7          	lui	gp,0x40002
     5cc:	003181b3          	add	gp,gp,gp
     5d0:	e821b823          	sd	sp,-368(gp) # 0x40001e90
     5d4:	769340b7          	lui	ra,0x76934
     5d8:	a4bae337          	lui	t1,0xa4bae
     5dc:	51728593	addi	a1,t0,1303 # 0xc434517
     5e0:	8093	mv	ra,ra
     5e4:	34108063	beq	ra,ra,0x924
     5e8:	400021b7          	lui	gp,0x40002
     5ec:	003181b3          	add	gp,gp,gp
     5f0:	e8b1b423          	sd	a1,-376(gp) # 0x40001e88
     5f4:	05c0e213          	ori	tp,ra,92
     5f8:	cc7820b7          	lui	ra,0xcc782
     5fc:	2290fd13          	andi	s10,ra,553
     600:	fe2240b7          	lui	ra,0xfe224
     604:	4f775b37          	lui	s6,0x4f775
     608:	74a1e093          	ori	ra,gp,1866
     60c:	400023b7          	lui	t2,0x40002
     610:	007383b3          	add	t2,t2,t2
     614:	e903b103          	ld	sp,-368(t2) # 0x40001e90
     618:	56b0c193          	xori	gp,ra,1387
     61c:	514214b7          	lui	s1,0x51421
     620:	c5128137          	lui	sp,0xc5128
     624:	7fd490b7          	lui	ra,0x7fd49
     628:	2c6b9837          	lui	a6,0x2c6b9
     62c:	2d01c113          	xori	sp,gp,720
     630:	400022b7          	lui	t0,0x40002
     634:	005282b3          	add	t0,t0,t0
     638:	e882b183          	ld	gp,-376(t0) # 0x40001e88
     63c:	63b4f293          	andi	t0,s1,1595
     640:	12acd0b7          	lui	ra,0x12acd
     644:	89b0f113          	andi	sp,ra,-1893
     648:	40002237	lui	tp,0x40002
     64c:	420233	add	tp,tp,tp
     650:	e9023183          	ld	gp,-368(tp) # 0x40001e90
     654:	6618393	addi	t2,gp,102
     658:	c82430b7          	lui	ra,0xc8243
     65c:	f7d14093          	xori	ra,sp,-131
     660:	8bd3e113          	ori	sp,t2,-1859
     664:	b5d17193          	andi	gp,sp,-1187
     668:	d7d16213          	ori	tp,sp,-643
     66c:	27669137	lui	sp,0x27669
     670:	a7f18213          	addi	tp,gp,-1409
     674:	25810113	addi	sp,sp,600 # 0x27669258
     678:	b6b200b7          	lui	ra,0xb6b20
     67c:	10193	mv	gp,sp
     680:	20218863	beq	gp,sp,0x890
     684:	93ca8037          	lui	zero,0x93ca8
     688:	01f4b0b7          	lui	ra,0x1f4b
     68c:	f079e0b7          	lui	ra,0xf079e
     690:	ebef90b7          	lui	ra,0xebef9
     694:	e8f171b7          	lui	gp,0xe8f17
     698:	b0c411b7          	lui	gp,0xb0c41
     69c:	40002137	lui	sp,0x40002
     6a0:	210133	add	sp,sp,sp
     6a4:	e8813083          	ld	ra,-376(sp) # 0x40001e88
     6a8:	c6f9f237          	lui	tp,0xc6f9f
     6ac:	693a30b7          	lui	ra,0x693a3
     6b0:	52608193	addi	gp,ra,1318 # 0x693a3526
     6b4:	efc40137          	lui	sp,0xefc40
     6b8:	33f10093          	addi	ra,sp,831 # 0xffffffffefc4033f
     6bc:	2ca10393          	addi	t2,sp,714
     6c0:	400021b7          	lui	gp,0x40002
     6c4:	003181b3          	add	gp,gp,gp
     6c8:	e821b823          	sd	sp,-368(gp) # 0x40001e90
     6cc:	400024b7          	lui	s1,0x40002
     6d0:	009484b3          	add	s1,s1,s1
     6d4:	e884b183          	ld	gp,-376(s1) # 0x40001e88
     6d8:	ebde91b7          	lui	gp,0xebde9
     6dc:	60ba40b7          	lui	ra,0x60ba4
     6e0:	ee1b10b7          	lui	ra,0xee1b1
     6e4:	c8a5c137          	lui	sp,0xc8a5c
     6e8:	6701f0b7          	lui	ra,0x6701f
     6ec:	1.32E+116	ori	sp,gp,306
     6f0:	ba2188e3          	beq	gp,sp,0x2a0
     6f4:	badff16f          	jal	sp,0x2a0
     6f8:	1c214313          	xori	t1,sp,450
     6fc:	40002337	lui	t1,0x40002
     700:	630333	add	t1,t1,t1
     704:	e8333823          	sd	gp,-368(t1) # 0x40001e90
     708:	da6201b7          	lui	gp,0xda620
     70c:	614230b7          	lui	ra,0x61423
     710:	c4246137          	lui	sp,0xc4246
     714:	8d518113          	addi	sp,gp,-1835 # 0xffffffffda61f8d5
     718:	400020b7          	lui	ra,0x40002
     71c:	001080b3          	add	ra,ra,ra
     720:	e880b103          	ld	sp,-376(ra) # 0x40001e88
     724:	fb5590b7          	lui	ra,0xfb559
     728:	0c008137          	lui	sp,0xc008
     72c:	bd91e093          	ori	ra,gp,-1063
     730:	400020b7          	lui	ra,0x40002
     734:	001080b3          	add	ra,ra,ra
     738:	e880b283          	ld	t0,-376(ra) # 0x40001e88
     73c:	89f5e293          	ori	t0,a1,-1889
     740:	e111c093          	xori	ra,gp,-495
     744:	2550c193          	xori	gp,ra,597
     748:	660551b7          	lui	gp,0x66055
     74c:	27d0f113          	andi	sp,ra,637
     750:	1cafd337          	lui	t1,0x1cafd
     754:	9f424093          	xori	ra,tp,-1548
     758:	08e4e037          	lui	zero,0x8e4e
     75c:	ddda66b7          	lui	a3,0xddda6
     760:	fb6360b7          	lui	ra,0xfb636
     764:	1f4211b7          	lui	gp,0x1f421
     768:	8213	mv	tp,ra
     76c:	aa1208e3          	beq	tp,ra,0x21c
     770:	40002137	lui	sp,0x40002
     774:	210133	add	sp,sp,sp
     778:	e9013283          	ld	t0,-368(sp) # 0x40001e90
     77c:	1b7b70b7          	lui	ra,0x1b7b7
     780:	885025b7          	lui	a1,0x88502
     784:	73c14093          	xori	ra,sp,1852
     788:	5a80f113          	andi	sp,ra,1448
     78c:	6a6862b7          	lui	t0,0x6a686
     790:	ee36e1b7          	lui	gp,0xee36e
     794:	0939e0b7          	lui	ra,0x939e
     798:	400020b7          	lui	ra,0x40002
     79c:	001080b3          	add	ra,ra,ra
     7a0:	e900b103          	ld	sp,-368(ra) # 0x40001e90
     7a4:	97b30293          	addi	t0,t1,-1669 # 0x1cafc97b
     7a8:	c7bdc093          	xori	ra,s11,-901
     7ac:	90e1f293          	andi	t0,gp,-1778
     7b0:	41d9a2b7          	lui	t0,0x41d9a
     7b4:	400021b7          	lui	gp,0x40002
     7b8:	003181b3          	add	gp,gp,gp
     7bc:	e831b823          	sd	gp,-368(gp) # 0x40001e90
     7c0:	40002237	lui	tp,0x40002
     7c4:	420233	add	tp,tp,tp
     7c8:	e9023003          	ld	zero,-368(tp) # 0x40001e90
     7cc:	f64c51b7          	lui	gp,0xf64c5
     7d0:	322bd6b7          	lui	a3,0x322bd
     7d4:	c42b90b7          	lui	ra,0xc42b9
     7d8:	0c0b6137          	lui	sp,0xc0b6
     7dc:	88447137	lui	sp,0x88447
     7e0:	0b3021b7          	lui	gp,0xb302
     7e4:	0b9571b7          	lui	gp,0xb957
     7e8:	2.78E+196	ori	gp,ra,632
     7ec:	b660c093          	xori	ra,ra,-1178
     7f0:	dde0f113          	andi	sp,ra,-546
     7f4:	10113	mv	sp,sp
     7f8:	e82106e3          	beq	sp,sp,0x684
     7fc:	500812b7          	lui	t0,0x50081
     800:	4dd1e793          	ori	a5,gp,1245
     804:	59c0c193          	xori	gp,ra,1436
     808:	ec1f6037          	lui	zero,0xec1f6
     80c:	00ab01b7          	lui	gp,0xab0
     810:	e315f137          	lui	sp,0xe315f
     814:	bc71f093          	andi	ra,gp,-1081
     818:	80c94093          	xori	ra,s2,-2036
     81c:	8bb1c193          	xori	gp,gp,-1861
     820:	400021b7          	lui	gp,0x40002
     824:	003181b3          	add	gp,gp,gp
     828:	e901b383          	ld	t2,-368(gp) # 0x40001e90
     82c:	9850c113          	xori	sp,ra,-1659
     830:	400020b7          	lui	ra,0x40002
     834:	001080b3          	add	ra,ra,ra
     838:	e880b183          	ld	gp,-376(ra) # 0x40001e88
     83c:	b9b14693          	xori	a3,sp,-1125
     840:	fe03f1b7          	lui	gp,0xfe03f
     844:	40002137	lui	sp,0x40002
     848:	210133	add	sp,sp,sp
     84c:	e9013083          	ld	ra,-368(sp) # 0x40001e90
     850:	26bac013          	xori	zero,s5,619
     854:	400022b7          	lui	t0,0x40002
     858:	005282b3          	add	t0,t0,t0
     85c:	e902b183          	ld	gp,-368(t0) # 0x40001e90
     860:	48f30093          	addi	ra,t1,1167
     864:	bba82137          	lui	sp,0xbba82
     868:	6e2560b7          	lui	ra,0x6e256
     86c:	40002137	lui	sp,0x40002
     870:	210133	add	sp,sp,sp
     874:	e8413423          	sd	tp,-376(sp) # 0x40001e88
     878:	966ba0b7          	lui	ra,0x966ba
     87c:	095dd137          	lui	sp,0x95dd
     880:	e966d037          	lui	zero,0xe966d
     884:	6572fab7          	lui	s5,0x6572f
     888:	aa3082e3          	beq	ra,gp,0x32c
     88c:	aa1ff16f          	jal	sp,0x32c
     890:	400021b7          	lui	gp,0x40002
     894:	003181b3          	add	gp,gp,gp
     898:	e881b083          	ld	ra,-376(gp) # 0x40001e88
     89c:	89837137	lui	sp,0x89837
     8a0:	df308313          	addi	t1,ra,-525 # 0xffffffff966b9df3
     8a4:	2.31E+196	ori	gp,gp,561
     8a8:	48e2c093          	xori	ra,t0,1166
     8ac:	2bd4f313          	andi	t1,s1,701
     8b0:	40002ab7          	lui	s5,0x40002
     8b4:	015a8ab3          	add	s5,s5,s5
     8b8:	e90ab203          	ld	tp,-368(s5) # 0x40001e90
     8bc:	40002f37          	lui	t5,0x40002
     8c0:	01ef0f33          	add	t5,t5,t5
     8c4:	e88f3103          	ld	sp,-376(t5) # 0x40001e88
     8c8:	400020b7          	lui	ra,0x40002
     8cc:	001080b3          	add	ra,ra,ra
     8d0:	e900b183          	ld	gp,-368(ra) # 0x40001e90
     8d4:	ce4df093          	andi	ra,s11,-796
     8d8:	400020b7          	lui	ra,0x40002
     8dc:	001080b3          	add	ra,ra,ra
     8e0:	e900b183          	ld	gp,-368(ra) # 0x40001e90
     8e4:	74de6037          	lui	zero,0x74de6
     8e8:	964e70b7          	lui	ra,0x964e7
     8ec:	40002137	lui	sp,0x40002
     8f0:	210133	add	sp,sp,sp
     8f4:	e9013103          	ld	sp,-368(sp) # 0x40001e90
     8f8:	83ebd1b7          	lui	gp,0x83ebd
     8fc:	bf85b2b7          	lui	t0,0xbf85b
     900:	1e814113          	xori	sp,sp,488
     904:	de51f113          	andi	sp,gp,-539
     908:	b431f1b7          	lui	gp,0xb431f
     90c:	13a06193          	ori	gp,zero,314
     910:	400020b7          	lui	ra,0x40002
     914:	001080b3          	add	ra,ra,ra
     918:	e820b823          	sd	sp,-368(ra) # 0x40001e90
     91c:	18093	mv	ra,gp
     920:	e43088e3          	beq	ra,gp,0x770
     924:	bc79d037          	lui	zero,0xbc79d
     928:	2fc10293          	addi	t0,sp,764
     92c:	a0ece0b7          	lui	ra,0xa0ece
     930:	07c17137          	lui	sp,0x7c17
     934:	b550f093          	andi	ra,ra,-1195
     938:	ef116193          	ori	gp,sp,-271
     93c:	f11645b7          	lui	a1,0xf1164
     940:	c0bfe093          	ori	ra,t6,-1013
     944:	f6bed0b7          	lui	ra,0xf6bed
     948:	400021b7          	lui	gp,0x40002
     94c:	003181b3          	add	gp,gp,gp
     950:	e801b423          	sd	zero,-376(gp) # 0x40001e88
     954:	7c1e8337          	lui	t1,0x7c1e8
     958:	38516037	lui	zero,0x38516
     95c:	0fa06113          	ori	sp,zero,250
     960:	40002137	lui	sp,0x40002
     964:	210133	add	sp,sp,sp
     968:	e8813003          	ld	zero,-376(sp) # 0x40001e88
     96c:	e5c491b7          	lui	gp,0xe5c49
     970:	7b707113          	andi	sp,zero,1975
     974:	60eb2237          	lui	tp,0x60eb2
     978:	15f14093          	xori	ra,sp,351
     97c:	976611b7          	lui	gp,0x97661
     980:	68333137	lui	sp,0x68333
     984:	613e4013          	xori	zero,t3,1555
     988:	0c5f2e37          	lui	t3,0xc5f2
     98c:	00a00013          	li	zero,10
     990:	9b0d9137          	lui	sp,0x9b0d9
     994:	1181f113          	andi	sp,gp,280
     998:	b62c01b7          	lui	gp,0xb62c0
     99c:	5f72c113          	xori	sp,t0,1527
     9a0:	13bff0b7          	lui	ra,0x13bff
     9a4:	18093	mv	ra,gp
     9a8:	a8308ce3          	beq	ra,gp,0x440
     9ac:	81017193	andi	gp,sp,-2032
     9b0:	7d1831b7          	lui	gp,0x7d183
     9b4:	21d00193          	li	gp,541
     9b8:	989040b7          	lui	ra,0x98904
     9bc:	9be941b7          	lui	gp,0x9be94
     9c0:	5018193	addi	gp,gp,80 # 0xffffffff9be94050
     9c4:	07ffc237          	lui	tp,0x7ffc
     9c8:	95d4c2b7          	lui	t0,0x95d4c
     9cc:	400023b7          	lui	t2,0x40002
     9d0:	007383b3          	add	t2,t2,t2
     9d4:	e863b823          	sd	t1,-368(t2) # 0x40001e90
     9d8:	acb70137          	lui	sp,0xacb70
     9dc:	b7e17093          	andi	ra,sp,-1154
     9e0:	f510c893          	xori	a7,ra,-175
     9e4:	14910113	addi	sp,sp,329 # 0xffffffffacb70149
     9e8:	49f1f093          	andi	ra,gp,1183
     9ec:	41ba51b7          	lui	gp,0x41ba5
     9f0:	d1c9b7b7          	lui	a5,0xd1c9b
     9f4:	aefad137          	lui	sp,0xaefad
     9f8:	eb80f137          	lui	sp,0xeb80f
     9fc:	400021b7          	lui	gp,0x40002
     a00:	003181b3          	add	gp,gp,gp
     a04:	e831b823          	sd	gp,-368(gp) # 0x40001e90
     a08:	27f08137          	lui	sp,0x27f08
     a0c:	0738d1b7          	lui	gp,0x738d
     a10:	90a17113          	andi	sp,sp,-1782
     a14:	b99cb337          	lui	t1,0xb99cb
     a18:	bfdd8137          	lui	sp,0xbfdd8
     a1c:	c4f2e113          	ori	sp,t0,-945
     a20:	40002137	lui	sp,0x40002
     a24:	210133	add	sp,sp,sp
     a28:	e9013103          	ld	sp,-368(sp) # 0x40001e90
     a2c:	530840b7          	lui	ra,0x53084
     a30:	63cfb137          	lui	sp,0x63cfb
     a34:	18193	mv	gp,gp
     a38:	b0318ee3          	beq	gp,gp,0x554
     a3c:	a121f213          	andi	tp,gp,-1518
     a40:	400021b7          	lui	gp,0x40002
     a44:	003181b3          	add	gp,gp,gp
     a48:	e881b103          	ld	sp,-376(gp) # 0x40001e88
     a4c:	41cf91b7          	lui	gp,0x41cf9
     a50:	c6819137          	lui	sp,0xc6819
     a54:	f8d0c793          	xori	a5,ra,-115
     a58:	3cff60b7          	lui	ra,0x3cff6
     a5c:	54b3f2b7          	lui	t0,0x54b3f
     a60:	3fe04093          	xori	ra,zero,1022
     a64:	fde96337          	lui	t1,0xfde96
     a68:	9921f193          	andi	gp,gp,-1646
     a6c:	3b68b5b7          	lui	a1,0x3b68b
     a70:	400020b7          	lui	ra,0x40002
     a74:	001080b3          	add	ra,ra,ra
     a78:	e810b423          	sd	ra,-376(ra) # 0x40001e88
     a7c:	2a818313          	addi	t1,gp,680 # 0x41cf92a8
     a80:	bae10c93          	addi	s9,sp,-1106 # 0xffffffffc6818bae
     a84:	027b6137          	lui	sp,0x27b6
     a88:	400020b7          	lui	ra,0x40002
     a8c:	001080b3          	add	ra,ra,ra
     a90:	e900b083          	ld	ra,-368(ra) # 0x40001e90
     a94:	676fe1b7          	lui	gp,0x676fe
     a98:	3f90c137          	lui	sp,0x3f90c
     a9c:	b4c9e237          	lui	tp,0xb4c9e
     aa0:	abc18113          	addi	sp,gp,-1348 # 0x676fdabc
     aa4:	683c40b7          	lui	ra,0x683c4
     aa8:	2b8e6113          	ori	sp,t3,696
     aac:	2b30c113          	xori	sp,ra,691
     ab0:	219d6037          	lui	zero,0x219d6
     ab4:	42c75037          	lui	zero,0x42c75
     ab8:	1137c137          	lui	sp,0x1137c
     abc:	858a7193          	andi	gp,s4,-1960
     ac0:	118263	beq	gp,ra,0xac4
     ac4:	ed0ff1ef          	jal	gp,0x194
     ac8:	589dd1b7          	lui	gp,0x589dd
     acc:	b786b1b7          	lui	gp,0xb786b
     ad0:	f54cf437          	lui	s0,0xf54cf
     ad4:	7f78b137          	lui	sp,0x7f78b
     ad8:	e993b437          	lui	s0,0xe993b
     adc:	70f6a137          	lui	sp,0x70f6a
     ae0:	bcc10693          	addi	a3,sp,-1076 # 0x70f69bcc
     ae4:	122561b7          	lui	gp,0x12256
     ae8:	fc680137          	lui	sp,0xfc680
     aec:	f2818193          	addi	gp,gp,-216 # 0x12255f28
     af0:	ff118093          	addi	ra,gp,-15
     af4:	4fe14093          	xori	ra,sp,1278
     af8:	8fa08013          	addi	zero,ra,-1798 # 0x683c38fa
     afc:	40002337	lui	t1,0x40002
     b00:	630333	add	t1,t1,t1
     b04:	e9033103          	ld	sp,-368(t1) # 0x40001e90
     b08:	4bb4e1b7          	lui	gp,0x4bb4e
     b0c:	71ad4137          	lui	sp,0x71ad4
     b10:	400021b7          	lui	gp,0x40002
     b14:	003181b3          	add	gp,gp,gp
     b18:	e881b283          	ld	t0,-376(gp) # 0x40001e88
     b1c:	20dcb2b7          	lui	t0,0x20dcb
     b20:	be95f0b7          	lui	ra,0xbe95f
     b24:	fb208113          	addi	sp,ra,-78 # 0xffffffffbe95efb2
     b28:	e62301b7          	lui	gp,0xe6230
     b2c:	dfa2c193          	xori	gp,t0,-518
     b30:	b55fd037          	lui	zero,0xb55fd
     b34:	400022b7          	lui	t0,0x40002
     b38:	005282b3          	add	t0,t0,t0
     b3c:	e832b423          	sd	gp,-376(t0) # 0x40001e88
